; ModuleID = '24/1387.c'
source_filename = "24/1387.c"
target datalayout = "e-m:e-p270:32:32-p271:32:32-p272:64:64-i64:64-f80:128-n8:16:32:64-S128"
target triple = "x86_64-pc-linux-gnu"

@.str = private unnamed_addr constant [3 x i8] c"%c\00", align 1
@.str.1 = private unnamed_addr constant [4 x i8] c"%c\0A\00", align 1

; Function Attrs: noinline nounwind uwtable
define dso_local i32 @main() #0 {
  %1 = alloca i32, align 4
  %2 = alloca [30000 x i8], align 16
  %3 = alloca i32, align 4
  %4 = alloca i32, align 4
  %5 = alloca [100 x i32], align 16
  %6 = alloca [100 x i32], align 16
  %7 = alloca i32, align 4
  %8 = alloca i32, align 4
  %9 = alloca i32, align 4
  %10 = alloca i32, align 4
  %11 = alloca i32, align 4
  store i32 0, i32* %1, align 4
  store i32 0, i32* %7, align 4
  %12 = getelementptr inbounds [30000 x i8], [30000 x i8]* %2, i64 0, i64 0
  %13 = call i32 (i8*, ...) bitcast (i32 (...)* @gets to i32 (i8*, ...)*)(i8* %12)
  store i32 0, i32* %3, align 4
  br label %14

14:                                               ; preds = %67, %0
  %15 = load i32, i32* %3, align 4
  %16 = sext i32 %15 to i64
  %17 = getelementptr inbounds [30000 x i8], [30000 x i8]* %2, i64 0, i64 %16
  %18 = load i8, i8* %17, align 1
  %19 = sext i8 %18 to i32
  %20 = icmp ne i32 %19, 0
  br i1 %20, label %21, label %28

21:                                               ; preds = %14
  %22 = load i32, i32* %3, align 4
  %23 = sext i32 %22 to i64
  %24 = getelementptr inbounds [30000 x i8], [30000 x i8]* %2, i64 0, i64 %23
  %25 = load i8, i8* %24, align 1
  %26 = sext i8 %25 to i32
  %27 = icmp ne i32 %26, 32
  br label %28

28:                                               ; preds = %21, %14
  %29 = phi i1 [ false, %14 ], [ %27, %21 ]
  br i1 %29, label %30, label %70

30:                                               ; preds = %28
  %31 = load i32, i32* %3, align 4
  %32 = add nsw i32 %31, 1
  store i32 %32, i32* %4, align 4
  br label %33

33:                                               ; preds = %50, %30
  %34 = load i32, i32* %4, align 4
  %35 = sext i32 %34 to i64
  %36 = getelementptr inbounds [30000 x i8], [30000 x i8]* %2, i64 0, i64 %35
  %37 = load i8, i8* %36, align 1
  %38 = sext i8 %37 to i32
  %39 = icmp ne i32 %38, 0
  br i1 %39, label %40, label %47

40:                                               ; preds = %33
  %41 = load i32, i32* %4, align 4
  %42 = sext i32 %41 to i64
  %43 = getelementptr inbounds [30000 x i8], [30000 x i8]* %2, i64 0, i64 %42
  %44 = load i8, i8* %43, align 1
  %45 = sext i8 %44 to i32
  %46 = icmp ne i32 %45, 32
  br label %47

47:                                               ; preds = %40, %33
  %48 = phi i1 [ false, %33 ], [ %46, %40 ]
  br i1 %48, label %49, label %53

49:                                               ; preds = %47
  br label %50

50:                                               ; preds = %49
  %51 = load i32, i32* %4, align 4
  %52 = add nsw i32 %51, 1
  store i32 %52, i32* %4, align 4
  br label %33

53:                                               ; preds = %47
  %54 = load i32, i32* %3, align 4
  %55 = load i32, i32* %7, align 4
  %56 = sext i32 %55 to i64
  %57 = getelementptr inbounds [100 x i32], [100 x i32]* %5, i64 0, i64 %56
  store i32 %54, i32* %57, align 4
  %58 = load i32, i32* %4, align 4
  %59 = load i32, i32* %3, align 4
  %60 = sub nsw i32 %58, %59
  %61 = load i32, i32* %7, align 4
  %62 = sext i32 %61 to i64
  %63 = getelementptr inbounds [100 x i32], [100 x i32]* %6, i64 0, i64 %62
  store i32 %60, i32* %63, align 4
  %64 = load i32, i32* %4, align 4
  store i32 %64, i32* %3, align 4
  %65 = load i32, i32* %7, align 4
  %66 = add nsw i32 %65, 1
  store i32 %66, i32* %7, align 4
  br label %67

67:                                               ; preds = %53
  %68 = load i32, i32* %3, align 4
  %69 = add nsw i32 %68, 1
  store i32 %69, i32* %3, align 4
  br label %14

70:                                               ; preds = %28
  %71 = getelementptr inbounds [100 x i32], [100 x i32]* %6, i64 0, i64 0
  %72 = load i32, i32* %71, align 16
  store i32 %72, i32* %8, align 4
  store i32 0, i32* %9, align 4
  store i32 0, i32* %3, align 4
  br label %73

73:                                               ; preds = %91, %70
  %74 = load i32, i32* %3, align 4
  %75 = load i32, i32* %7, align 4
  %76 = icmp slt i32 %74, %75
  br i1 %76, label %77, label %94

77:                                               ; preds = %73
  %78 = load i32, i32* %3, align 4
  %79 = sext i32 %78 to i64
  %80 = getelementptr inbounds [100 x i32], [100 x i32]* %6, i64 0, i64 %79
  %81 = load i32, i32* %80, align 4
  %82 = load i32, i32* %8, align 4
  %83 = icmp sgt i32 %81, %82
  br i1 %83, label %84, label %90

84:                                               ; preds = %77
  %85 = load i32, i32* %3, align 4
  %86 = sext i32 %85 to i64
  %87 = getelementptr inbounds [100 x i32], [100 x i32]* %6, i64 0, i64 %86
  %88 = load i32, i32* %87, align 4
  store i32 %88, i32* %8, align 4
  %89 = load i32, i32* %3, align 4
  store i32 %89, i32* %9, align 4
  br label %90

90:                                               ; preds = %84, %77
  br label %91

91:                                               ; preds = %90
  %92 = load i32, i32* %3, align 4
  %93 = add nsw i32 %92, 1
  store i32 %93, i32* %3, align 4
  br label %73

94:                                               ; preds = %73
  %95 = getelementptr inbounds [100 x i32], [100 x i32]* %6, i64 0, i64 0
  %96 = load i32, i32* %95, align 16
  store i32 %96, i32* %10, align 4
  store i32 0, i32* %11, align 4
  store i32 0, i32* %3, align 4
  br label %97

97:                                               ; preds = %115, %94
  %98 = load i32, i32* %3, align 4
  %99 = load i32, i32* %7, align 4
  %100 = icmp slt i32 %98, %99
  br i1 %100, label %101, label %118

101:                                              ; preds = %97
  %102 = load i32, i32* %3, align 4
  %103 = sext i32 %102 to i64
  %104 = getelementptr inbounds [100 x i32], [100 x i32]* %6, i64 0, i64 %103
  %105 = load i32, i32* %104, align 4
  %106 = load i32, i32* %10, align 4
  %107 = icmp slt i32 %105, %106
  br i1 %107, label %108, label %114

108:                                              ; preds = %101
  %109 = load i32, i32* %3, align 4
  %110 = sext i32 %109 to i64
  %111 = getelementptr inbounds [100 x i32], [100 x i32]* %6, i64 0, i64 %110
  %112 = load i32, i32* %111, align 4
  store i32 %112, i32* %10, align 4
  %113 = load i32, i32* %3, align 4
  store i32 %113, i32* %11, align 4
  br label %114

114:                                              ; preds = %108, %101
  br label %115

115:                                              ; preds = %114
  %116 = load i32, i32* %3, align 4
  %117 = add nsw i32 %116, 1
  store i32 %117, i32* %3, align 4
  br label %97

118:                                              ; preds = %97
  %119 = load i32, i32* %9, align 4
  %120 = sext i32 %119 to i64
  %121 = getelementptr inbounds [100 x i32], [100 x i32]* %5, i64 0, i64 %120
  %122 = load i32, i32* %121, align 4
  store i32 %122, i32* %3, align 4
  br label %123

123:                                              ; preds = %143, %118
  %124 = load i32, i32* %3, align 4
  %125 = load i32, i32* %9, align 4
  %126 = sext i32 %125 to i64
  %127 = getelementptr inbounds [100 x i32], [100 x i32]* %5, i64 0, i64 %126
  %128 = load i32, i32* %127, align 4
  %129 = load i32, i32* %9, align 4
  %130 = sext i32 %129 to i64
  %131 = getelementptr inbounds [100 x i32], [100 x i32]* %6, i64 0, i64 %130
  %132 = load i32, i32* %131, align 4
  %133 = add nsw i32 %128, %132
  %134 = sub nsw i32 %133, 1
  %135 = icmp slt i32 %124, %134
  br i1 %135, label %136, label %146

136:                                              ; preds = %123
  %137 = load i32, i32* %3, align 4
  %138 = sext i32 %137 to i64
  %139 = getelementptr inbounds [30000 x i8], [30000 x i8]* %2, i64 0, i64 %138
  %140 = load i8, i8* %139, align 1
  %141 = sext i8 %140 to i32
  %142 = call i32 (i8*, ...) @printf(i8* getelementptr inbounds ([3 x i8], [3 x i8]* @.str, i64 0, i64 0), i32 %141)
  br label %143

143:                                              ; preds = %136
  %144 = load i32, i32* %3, align 4
  %145 = add nsw i32 %144, 1
  store i32 %145, i32* %3, align 4
  br label %123

146:                                              ; preds = %123
  %147 = load i32, i32* %9, align 4
  %148 = sext i32 %147 to i64
  %149 = getelementptr inbounds [100 x i32], [100 x i32]* %5, i64 0, i64 %148
  %150 = load i32, i32* %149, align 4
  %151 = load i32, i32* %9, align 4
  %152 = sext i32 %151 to i64
  %153 = getelementptr inbounds [100 x i32], [100 x i32]* %6, i64 0, i64 %152
  %154 = load i32, i32* %153, align 4
  %155 = add nsw i32 %150, %154
  %156 = sub nsw i32 %155, 1
  %157 = sext i32 %156 to i64
  %158 = getelementptr inbounds [30000 x i8], [30000 x i8]* %2, i64 0, i64 %157
  %159 = load i8, i8* %158, align 1
  %160 = sext i8 %159 to i32
  %161 = call i32 (i8*, ...) @printf(i8* getelementptr inbounds ([4 x i8], [4 x i8]* @.str.1, i64 0, i64 0), i32 %160)
  %162 = load i32, i32* %11, align 4
  %163 = sext i32 %162 to i64
  %164 = getelementptr inbounds [100 x i32], [100 x i32]* %5, i64 0, i64 %163
  %165 = load i32, i32* %164, align 4
  store i32 %165, i32* %3, align 4
  br label %166

166:                                              ; preds = %189, %146
  %167 = load i32, i32* %3, align 4
  %168 = sext i32 %167 to i64
  %169 = getelementptr inbounds [30000 x i8], [30000 x i8]* %2, i64 0, i64 %168
  %170 = load i8, i8* %169, align 1
  %171 = sext i8 %170 to i32
  %172 = icmp ne i32 %171, 0
  br i1 %172, label %173, label %180

173:                                              ; preds = %166
  %174 = load i32, i32* %3, align 4
  %175 = sext i32 %174 to i64
  %176 = getelementptr inbounds [30000 x i8], [30000 x i8]* %2, i64 0, i64 %175
  %177 = load i8, i8* %176, align 1
  %178 = sext i8 %177 to i32
  %179 = icmp ne i32 %178, 32
  br label %180

180:                                              ; preds = %173, %166
  %181 = phi i1 [ false, %166 ], [ %179, %173 ]
  br i1 %181, label %182, label %192

182:                                              ; preds = %180
  %183 = load i32, i32* %3, align 4
  %184 = sext i32 %183 to i64
  %185 = getelementptr inbounds [30000 x i8], [30000 x i8]* %2, i64 0, i64 %184
  %186 = load i8, i8* %185, align 1
  %187 = sext i8 %186 to i32
  %188 = call i32 (i8*, ...) @printf(i8* getelementptr inbounds ([3 x i8], [3 x i8]* @.str, i64 0, i64 0), i32 %187)
  br label %189

189:                                              ; preds = %182
  %190 = load i32, i32* %3, align 4
  %191 = add nsw i32 %190, 1
  store i32 %191, i32* %3, align 4
  br label %166

192:                                              ; preds = %180
  ret i32 0
}

declare dso_local i32 @gets(...) #1

declare dso_local i32 @printf(i8*, ...) #1


!llvm.module.flags = !{!0}
!llvm.ident = !{!1}

!0 = !{i32 1, !"wchar_size", i32 4}
!1 = !{!"clang version 10.0.0-4ubuntu1 "}
